; Function Attrs: mustprogress nounwind uwtable
define void @_ZNK32pxrInternal_v0_24__pxrReserved__13Arch_UnmapperclEPKc(ptr noundef nonnull readonly align 8 captures(none) dereferenceable(8) %0, ptr noundef %1) local_unnamed_addr #2 align 2 {
  %.not = icmp eq ptr %1, null
  br i1 %.not, label %6, label %3

3:                                                ; preds = %2
  %4 = load i64, ptr %0, align 8
  %5 = tail call i32 @munmap(ptr noundef nonnull %1, i64 noundef %4) #23
  br label %6

6:                                                ; preds = %2, %3
  ret void
}